; Function Attrs: mustprogress null_pointer_is_valid sspstrong uwtable
define internal void @_ZL23io_graph_color_tostr_cbPvPPcPjPKvS4_(ptr noundef readonly captures(none) %0, ptr noundef writeonly captures(none) initializes((0, 8)) %1, ptr noundef writeonly captures(none) initializes((0, 4)) %2, ptr readnone captures(none) %3, ptr readnone captures(none) %4) #2 {
  %6 = getelementptr inbounds nuw i8, ptr %0, i64 24
  %7 = load i32, ptr %6, align 8
  %8 = tail call noalias ptr (ptr, ptr, ...) @wmem_strdup_printf(ptr noundef null, ptr noundef nonnull @.str.293, i32 noundef %7)
  store ptr %8, ptr %1, align 8
  %9 = tail call i64 @strlen(ptr noundef %8) #39
  %10 = trunc i64 %9 to i32
  store i32 %10, ptr %2, align 4
  ret void
}